; Function Attrs: nounwind uwtable
define dso_local range(i64 0, 2) i64 @has_function_privilege_id(ptr noundef captures(none) %0) local_unnamed_addr #0 {
  %2 = alloca i8, align 1
  %3 = getelementptr inbounds nuw i8, ptr %0, i64 32
  %4 = load i64, ptr %3, align 8
  %5 = trunc i64 %4 to i32
  %6 = getelementptr inbounds nuw i8, ptr %0, i64 48
  %7 = load i64, ptr %6, align 8
  %8 = inttoptr i64 %7 to ptr
  %9 = tail call ptr @pg_detoast_datum_packed(ptr noundef %8) #14
  call void @llvm.lifetime.start.p0(i64 1, ptr nonnull %2) #14
  store i8 0, ptr %2, align 1
  %10 = tail call i32 @GetUserId() #14
  %11 = tail call fastcc i64 @convert_any_priv_string(ptr noundef %9, ptr noundef nonnull @convert_function_priv_string.function_priv_map)
  %12 = call i32 @object_aclcheck_ext(i32 noundef 1255, i32 noundef %5, i32 noundef %10, i64 noundef %11, ptr noundef nonnull %2) #14
  %13 = load i8, ptr %2, align 1, !range !27, !noundef !28
  %14 = trunc nuw i8 %13 to i1
  br i1 %14, label %15, label %17

15:                                               ; preds = %1
  %16 = getelementptr inbounds nuw i8, ptr %0, i64 28
  store i8 1, ptr %16, align 4
  br label %20

17:                                               ; preds = %1
  %18 = icmp eq i32 %12, 0
  %19 = zext i1 %18 to i64
  br label %20

20:                                               ; preds = %17, %15
  %.0 = phi i64 [ 0, %15 ], [ %19, %17 ]
  call void @llvm.lifetime.end.p0(i64 1, ptr nonnull %2) #14
  ret i64 %.0
}